(dp0
S'cov_m'
p1
S'spin0'
p2
sS'ell_min'
p3
I0
sS'all_pars'
p4
(dp5
S'h'
p6
F0.67
sS'w_a'
p7
F0.0
sS'n_s'
p8
F0.96
sS'sigma8'
p9
F0.840421163375
sS'Omega_c'
p10
F0.27
sS'Omega_b'
p11
F0.045
sS'w_0'
p12
F-1.0
ssS'range_m_M'
p13
cnumpy.core.multiarray
_reconstruct
p14
(cnumpy
ndarray
p15
(I0
tp16
S'b'
p17
tp18
Rp19
(I1
(I2
I2
tp20
cnumpy
dtype
p21
(S'f8'
p22
I0
I1
tp23
Rp24
(I3
S'<'
p25
NNNI-1
I-1
I0
tp26
bI00
S'\xad\xa8\xfeL\x86\xd6\xd0?\xe3\x19\xf7\xdb\xd5\xb8\xd1?P\x99V\xc8\xda\xb8\xea?\xd2\\\x8d\x10\x9b\x10\xeb?'
p27
tp28
bsS'var_pars'
p29
g14
(g15
(I0
tp30
g17
tp31
Rp32
(I1
(I2
tp33
g21
(S'S7'
p34
I0
I1
tp35
Rp36
(I3
S'|'
p37
NNNI7
I1
I0
tp38
bI00
S'Omega_csigma8\x00'
p39
tp40
bsS'n_grid'
p41
g14
(g15
(I0
tp42
g17
tp43
Rp44
(I1
(I2
tp45
g21
(S'i8'
p46
I0
I1
tp47
Rp48
(I3
S'<'
p49
NNNI-1
I-1
I0
tp50
bI00
S'd\x00\x00\x00\x00\x00\x00\x00d\x00\x00\x00\x00\x00\x00\x00'
p51
tp52
bsS'grid_fn'
p53
S'chi2_Omega_c_sigma8_ng_100_100_lmin_0_nb_2_cov_spin0.npz'
p54
sS'n_bins'
p55
I2
s.